target datalayout = "e-m:e-p270:32:32-p271:32:32-p272:64:64-i64:64-i128:128-f80:128-n8:16:32:64-S128"
target triple = "x86_64-pc-linux-gnu"

%struct.pmix_pointer_array_t = type { %struct.pmix_object_t, i32, i32, i32, i32, i32, ptr, ptr }
%struct.pmix_object_t = type { %union.pthread_mutex_t, ptr, i32, %struct.pmix_tma }
%union.pthread_mutex_t = type { %struct.__pthread_mutex_s }
%struct.__pthread_mutex_s = type { i32, i32, i32, i32, i32, i16, i16, %struct.__pthread_internal_list }
%struct.__pthread_internal_list = type { ptr, ptr }
%struct.pmix_tma = type { ptr, ptr, ptr, ptr, ptr, ptr, ptr, ptr }
%struct.pmix_proc = type { [256 x i8], i32 }
%struct.pmix_list_t = type { %struct.pmix_object_t, %struct.pmix_list_item_t, i64 }
%struct.pmix_list_item_t = type { %struct.pmix_object_t, ptr, ptr, i32 }
%struct.pmix_class_t = type { ptr, ptr, ptr, ptr, i32, i32, ptr, ptr, i64 }
%struct.pmix_server_globals_t = type { i8, i32, i32, %struct.pmix_pointer_array_t, %struct.pmix_pointer_array_t, i32, i8, %struct.pmix_proc, %struct.pmix_list_t, i8, i8, i8, i8, i8, %struct.pmix_proc, i8, ptr, ptr, i64, %struct.pmix_list_t, %struct.pmix_list_t, %struct.pmix_list_t }
%struct.prte_pmix_tool_t = type { %struct.pmix_list_item_t, %struct.pmix_proc }

@.str.56 = private unnamed_addr constant [21 x i8] c"pthread_mutex_lock()\00", align 1

; Function Attrs: inlinehint nounwind uwtable
define internal void @pmix_tma_free(ptr noundef %0, ptr noundef %1) #4 {
  %3 = alloca ptr, align 8
  %4 = alloca ptr, align 8
  store ptr %0, ptr %3, align 8, !tbaa !68
  store ptr %1, ptr %4, align 8, !tbaa !36
  %5 = load ptr, ptr %3, align 8, !tbaa !68
  %6 = icmp ne ptr null, %5
  br i1 %6, label %7, label %13

7:                                                ; preds = %2
  %8 = load ptr, ptr %3, align 8, !tbaa !68
  %9 = getelementptr inbounds nuw %struct.pmix_tma, ptr %8, i32 0, i32 5
  %10 = load ptr, ptr %9, align 8, !tbaa !70
  %11 = load ptr, ptr %3, align 8, !tbaa !68
  %12 = load ptr, ptr %4, align 8, !tbaa !36
  call void %10(ptr noundef %11, ptr noundef %12)
  br label %15

13:                                               ; preds = %2
  %14 = load ptr, ptr %4, align 8, !tbaa !36
  call void @free(ptr noundef %14) #13
  br label %15

15:                                               ; preds = %13, %7
  ret void
}

; Function Attrs: inlinehint nounwind uwtable
define internal void @pmix_obj_run_destructors(ptr noundef %0) #4 {
  %2 = alloca ptr, align 8
  %3 = alloca ptr, align 8
  store ptr %0, ptr %2, align 8, !tbaa !55
  call void @llvm.lifetime.start.p0(i64 8, ptr %3) #13
  %4 = load ptr, ptr %2, align 8, !tbaa !55
  %5 = getelementptr inbounds nuw %struct.pmix_object_t, ptr %4, i32 0, i32 1
  %6 = load ptr, ptr %5, align 8, !tbaa !64
  %7 = getelementptr inbounds nuw %struct.pmix_class_t, ptr %6, i32 0, i32 7
  %8 = load ptr, ptr %7, align 8, !tbaa !65
  store ptr %8, ptr %3, align 8, !tbaa !36
  br label %9

9:                                                ; preds = %13, %1
  %10 = load ptr, ptr %3, align 8, !tbaa !36
  %11 = load ptr, ptr %10, align 8, !tbaa !36
  %12 = icmp ne ptr null, %11
  br i1 %12, label %13, label %19

13:                                               ; preds = %9
  %14 = load ptr, ptr %3, align 8, !tbaa !36
  %15 = load ptr, ptr %14, align 8, !tbaa !36
  %16 = load ptr, ptr %2, align 8, !tbaa !55
  call void %15(ptr noundef %16)
  %17 = load ptr, ptr %3, align 8, !tbaa !36
  %18 = getelementptr inbounds nuw ptr, ptr %17, i32 1
  store ptr %18, ptr %3, align 8, !tbaa !36
  br label %9, !llvm.loop !67

19:                                               ; preds = %9
  call void @llvm.lifetime.end.p0(i64 8, ptr %3) #13
  ret void
}

; Function Attrs: alwaysinline nounwind uwtable
define internal i32 @pmix_obj_update(ptr noundef %0, i32 noundef %1) #5 {
  %3 = alloca ptr, align 8
  %4 = alloca i32, align 4
  %5 = alloca i32, align 4
  store ptr %0, ptr %3, align 8, !tbaa !55
  store i32 %1, ptr %4, align 4, !tbaa !29
  call void @llvm.lifetime.start.p0(i64 4, ptr %5) #13
  %6 = load ptr, ptr %3, align 8, !tbaa !55
  %7 = getelementptr inbounds nuw %struct.pmix_object_t, ptr %6, i32 0, i32 0
  %8 = call i32 @pthread_mutex_lock(ptr noundef %7) #13
  store i32 %8, ptr %5, align 4, !tbaa !29
  %9 = load i32, ptr %5, align 4, !tbaa !29
  %10 = icmp eq i32 %9, 35
  br i1 %10, label %11, label %14

11:                                               ; preds = %2
  %12 = load i32, ptr %5, align 4, !tbaa !29
  %13 = call ptr @__errno_location() #15
  store i32 %12, ptr %13, align 4, !tbaa !29
  call void @perror(ptr noundef @.str.56)
  call void @abort() #16
  unreachable

14:                                               ; preds = %2
  %15 = load i32, ptr %4, align 4, !tbaa !29
  %16 = load ptr, ptr %3, align 8, !tbaa !55
  %17 = getelementptr inbounds nuw %struct.pmix_object_t, ptr %16, i32 0, i32 2
  %18 = load i32, ptr %17, align 8, !tbaa !63
  %19 = add nsw i32 %18, %15
  store i32 %19, ptr %17, align 8, !tbaa !63
  store i32 %19, ptr %5, align 4, !tbaa !29
  %20 = load ptr, ptr %3, align 8, !tbaa !55
  %21 = getelementptr inbounds nuw %struct.pmix_object_t, ptr %20, i32 0, i32 0
  %22 = call i32 @pthread_mutex_unlock(ptr noundef %21) #13
  %23 = load i32, ptr %5, align 4, !tbaa !29
  call void @llvm.lifetime.end.p0(i64 4, ptr %5) #13
  ret i32 %23
}

; Function Attrs: inlinehint nounwind uwtable
define internal ptr @pmix_list_remove_item(ptr noundef %0, ptr noundef %1) #4 {
  %3 = alloca ptr, align 8
  %4 = alloca ptr, align 8
  store ptr %0, ptr %3, align 8, !tbaa !176
  store ptr %1, ptr %4, align 8, !tbaa !171
  %5 = load ptr, ptr %4, align 8, !tbaa !171
  %6 = getelementptr inbounds nuw %struct.pmix_list_item_t, ptr %5, i32 0, i32 1
  %7 = load ptr, ptr %6, align 8, !tbaa !122
  %8 = load ptr, ptr %4, align 8, !tbaa !171
  %9 = getelementptr inbounds nuw %struct.pmix_list_item_t, ptr %8, i32 0, i32 2
  %10 = load ptr, ptr %9, align 8, !tbaa !180
  %11 = getelementptr inbounds nuw %struct.pmix_list_item_t, ptr %10, i32 0, i32 1
  store volatile ptr %7, ptr %11, align 8, !tbaa !122
  %12 = load ptr, ptr %4, align 8, !tbaa !171
  %13 = getelementptr inbounds nuw %struct.pmix_list_item_t, ptr %12, i32 0, i32 2
  %14 = load ptr, ptr %13, align 8, !tbaa !180
  %15 = load ptr, ptr %4, align 8, !tbaa !171
  %16 = getelementptr inbounds nuw %struct.pmix_list_item_t, ptr %15, i32 0, i32 1
  %17 = load ptr, ptr %16, align 8, !tbaa !122
  %18 = getelementptr inbounds nuw %struct.pmix_list_item_t, ptr %17, i32 0, i32 2
  store volatile ptr %14, ptr %18, align 8, !tbaa !180
  %19 = load ptr, ptr %3, align 8, !tbaa !176
  %20 = getelementptr inbounds nuw %struct.pmix_list_t, ptr %19, i32 0, i32 2
  %21 = load volatile i64, ptr %20, align 8, !tbaa !178
  %22 = add i64 %21, -1
  store volatile i64 %22, ptr %20, align 8, !tbaa !178
  %23 = load ptr, ptr %4, align 8, !tbaa !171
  %24 = getelementptr inbounds nuw %struct.pmix_list_item_t, ptr %23, i32 0, i32 2
  %25 = load ptr, ptr %24, align 8, !tbaa !180
  ret ptr %25
}

; Function Attrs: nounwind uwtable
define internal void @lost_connection_hdlr(i64 noundef %0, i32 noundef %1, ptr noundef %2, ptr noundef %3, i64 noundef %4, ptr noundef %5, i64 noundef %6, ptr noundef %7, ptr noundef %8) #0 {
  %10 = alloca i64, align 8
  %11 = alloca i32, align 4
  %12 = alloca ptr, align 8
  %13 = alloca ptr, align 8
  %14 = alloca i64, align 8
  %15 = alloca ptr, align 8
  %16 = alloca i64, align 8
  %17 = alloca ptr, align 8
  %18 = alloca ptr, align 8
  %19 = alloca ptr, align 8
  %20 = alloca ptr, align 8
  store i64 %0, ptr %10, align 8, !tbaa !97
  store i32 %1, ptr %11, align 4, !tbaa !29
  store ptr %2, ptr %12, align 8, !tbaa !33
  store ptr %3, ptr %13, align 8, !tbaa !95
  store i64 %4, ptr %14, align 8, !tbaa !97
  store ptr %5, ptr %15, align 8, !tbaa !95
  store i64 %6, ptr %16, align 8, !tbaa !97
  store ptr %7, ptr %17, align 8, !tbaa !36
  store ptr %8, ptr %18, align 8, !tbaa !36
  call void @llvm.lifetime.start.p0(i64 8, ptr %19) #13
  %21 = load ptr, ptr getelementptr inbounds nuw (%struct.pmix_list_item_t, ptr getelementptr inbounds nuw (%struct.pmix_list_t, ptr getelementptr inbounds nuw (%struct.pmix_server_globals_t, ptr @prte_pmix_server_globals, i32 0, i32 19), i32 0, i32 1), i32 0, i32 1), align 8, !tbaa !121
  store ptr %21, ptr %19, align 8, !tbaa !36
  br label %22

22:                                               ; preds = %57, %9
  %23 = load ptr, ptr %19, align 8, !tbaa !36
  %24 = icmp ne ptr %23, getelementptr inbounds nuw (%struct.pmix_list_t, ptr getelementptr inbounds nuw (%struct.pmix_server_globals_t, ptr @prte_pmix_server_globals, i32 0, i32 19), i32 0, i32 1)
  br i1 %24, label %25, label %61

25:                                               ; preds = %22
  %26 = load ptr, ptr %19, align 8, !tbaa !36
  %27 = getelementptr inbounds nuw %struct.prte_pmix_tool_t, ptr %26, i32 0, i32 1
  %28 = load ptr, ptr %12, align 8, !tbaa !33
  %29 = call zeroext i1 @PMIx_Check_procid(ptr noundef %27, ptr noundef %28)
  br i1 %29, label %30, label %56

30:                                               ; preds = %25
  %31 = load ptr, ptr %19, align 8, !tbaa !36
  %32 = getelementptr inbounds nuw %struct.prte_pmix_tool_t, ptr %31, i32 0, i32 0
  %33 = call ptr @pmix_list_remove_item(ptr noundef getelementptr inbounds nuw (%struct.pmix_server_globals_t, ptr @prte_pmix_server_globals, i32 0, i32 19), ptr noundef %32)
  br label %34

34:                                               ; preds = %30
  call void @llvm.lifetime.start.p0(i64 8, ptr %20) #13
  %35 = load ptr, ptr %19, align 8, !tbaa !36
  store ptr %35, ptr %20, align 8, !tbaa !55
  %36 = load ptr, ptr %20, align 8, !tbaa !55
  %37 = call i32 @pmix_obj_update(ptr noundef %36, i32 noundef -1)
  %38 = icmp eq i32 0, %37
  br i1 %38, label %39, label %53

39:                                               ; preds = %34
  %40 = load ptr, ptr %20, align 8, !tbaa !55
  call void @pmix_obj_run_destructors(ptr noundef %40)
  %41 = load ptr, ptr %20, align 8, !tbaa !55
  %42 = getelementptr inbounds nuw %struct.pmix_object_t, ptr %41, i32 0, i32 3
  %43 = getelementptr inbounds nuw %struct.pmix_tma, ptr %42, i32 0, i32 5
  %44 = load ptr, ptr %43, align 8, !tbaa !57
  %45 = icmp ne ptr null, %44
  br i1 %45, label %46, label %50

46:                                               ; preds = %39
  %47 = load ptr, ptr %20, align 8, !tbaa !55
  %48 = getelementptr inbounds nuw %struct.pmix_object_t, ptr %47, i32 0, i32 3
  %49 = load ptr, ptr %19, align 8, !tbaa !36
  call void @pmix_tma_free(ptr noundef %48, ptr noundef %49)
  br label %52

50:                                               ; preds = %39
  %51 = load ptr, ptr %19, align 8, !tbaa !36
  call void @free(ptr noundef %51) #13
  br label %52

52:                                               ; preds = %50, %46
  store ptr null, ptr %19, align 8, !tbaa !36
  br label %53

53:                                               ; preds = %52, %34
  call void @llvm.lifetime.end.p0(i64 8, ptr %20) #13
  br label %54

54:                                               ; preds = %53
  br label %55

55:                                               ; preds = %54
  br label %61

56:                                               ; preds = %25
  br label %57

57:                                               ; preds = %56
  %58 = load ptr, ptr %19, align 8, !tbaa !36
  %59 = getelementptr inbounds nuw %struct.pmix_list_item_t, ptr %58, i32 0, i32 1
  %60 = load ptr, ptr %59, align 8, !tbaa !122
  store ptr %60, ptr %19, align 8, !tbaa !36
  br label %22, !llvm.loop !123

61:                                               ; preds = %55, %22
  %62 = load ptr, ptr %17, align 8, !tbaa !36
  %63 = icmp ne ptr null, %62
  br i1 %63, label %64, label %67

64:                                               ; preds = %61
  %65 = load ptr, ptr %17, align 8, !tbaa !36
  %66 = load ptr, ptr %18, align 8, !tbaa !36
  call void %65(i32 noundef -334, ptr noundef null, i64 noundef 0, ptr noundef null, ptr noundef null, ptr noundef %66)
  br label %67

67:                                               ; preds = %64, %61
  call void @llvm.lifetime.end.p0(i64 8, ptr %19) #13
  ret void
}