; Function Attrs: nounwind uwtable
define internal void @lost_connection_hdlr(i64 %0, i32 %1, ptr noundef %2, ptr readnone captures(none) %3, i64 %4, ptr readnone captures(none) %5, i64 %6, ptr noundef readonly captures(address_is_null) %7, ptr noundef %8) #0 {
  %.020 = load ptr, ptr getelementptr inbounds nuw (i8, ptr @prte_pmix_server_globals, i64 1416), align 8, !tbaa !100
  %.not21 = icmp eq ptr %.020, getelementptr inbounds nuw (i8, ptr @prte_pmix_server_globals, i64 1296)
  br i1 %.not21, label %.loopexit, label %.lr.ph

.lr.ph:                                           ; preds = %9, %44
  %.022 = phi ptr [ %13, %44 ], [ %.020, %9 ]
  %10 = getelementptr inbounds nuw i8, ptr %.022, i64 144
  %11 = tail call zeroext i1 @PMIx_Check_procid(ptr noundef nonnull %10, ptr noundef %2) #17
  %12 = getelementptr inbounds nuw i8, ptr %.022, i64 120
  %13 = load ptr, ptr %12, align 8, !tbaa !100
  br i1 %11, label %14, label %44

14:                                               ; preds = %.lr.ph
  %15 = getelementptr inbounds nuw i8, ptr %.022, i64 128
  %16 = load ptr, ptr %15, align 8, !tbaa !101
  %17 = getelementptr inbounds nuw i8, ptr %16, i64 120
  store volatile ptr %13, ptr %17, align 8, !tbaa !100
  %18 = getelementptr inbounds nuw i8, ptr %13, i64 128
  store volatile ptr %16, ptr %18, align 8, !tbaa !101
  %19 = load volatile i64, ptr getelementptr inbounds nuw (i8, ptr @prte_pmix_server_globals, i64 1440), align 8, !tbaa !102
  %20 = add i64 %19, -1
  store volatile i64 %20, ptr getelementptr inbounds nuw (i8, ptr @prte_pmix_server_globals, i64 1440), align 8, !tbaa !102
  %21 = tail call i32 @pthread_mutex_lock(ptr noundef %.022) #17
  %22 = icmp eq i32 %21, 35
  br i1 %22, label %23, label %pmix_obj_update.exit

23:                                               ; preds = %14
  %24 = tail call ptr @__errno_location() #19
  store i32 35, ptr %24, align 4, !tbaa !51
  tail call void @perror(ptr noundef nonnull @.str.56) #20
  tail call void @abort() #21
  unreachable

pmix_obj_update.exit:                             ; preds = %14
  %25 = getelementptr inbounds nuw i8, ptr %.022, i64 48
  %26 = load i32, ptr %25, align 8, !tbaa !52
  %27 = add nsw i32 %26, -1
  store i32 %27, ptr %25, align 8, !tbaa !52
  %28 = tail call i32 @pthread_mutex_unlock(ptr noundef %.022) #17
  %29 = icmp eq i32 %27, 0
  br i1 %29, label %30, label %.loopexit

30:                                               ; preds = %pmix_obj_update.exit
  %31 = getelementptr inbounds nuw i8, ptr %.022, i64 40
  %32 = load ptr, ptr %31, align 8, !tbaa !53
  %33 = getelementptr inbounds nuw i8, ptr %32, i64 48
  %34 = load ptr, ptr %33, align 8, !tbaa !54
  %35 = load ptr, ptr %34, align 8, !tbaa !32
  %.not6.i = icmp eq ptr %35, null
  br i1 %.not6.i, label %pmix_obj_run_destructors.exit, label %.lr.ph.i

.lr.ph.i:                                         ; preds = %30, %.lr.ph.i
  %36 = phi ptr [ %38, %.lr.ph.i ], [ %35, %30 ]
  %.07.i = phi ptr [ %37, %.lr.ph.i ], [ %34, %30 ]
  tail call void %36(ptr noundef %.022) #17
  %37 = getelementptr inbounds nuw i8, ptr %.07.i, i64 8
  %38 = load ptr, ptr %37, align 8, !tbaa !32
  %.not.i = icmp eq ptr %38, null
  br i1 %.not.i, label %pmix_obj_run_destructors.exit, label %.lr.ph.i, !llvm.loop !56

pmix_obj_run_destructors.exit:                    ; preds = %.lr.ph.i, %30
  %39 = getelementptr inbounds nuw i8, ptr %.022, i64 96
  %40 = load ptr, ptr %39, align 8, !tbaa !57
  %.not16 = icmp eq ptr %40, null
  br i1 %.not16, label %43, label %41

41:                                               ; preds = %pmix_obj_run_destructors.exit
  %42 = getelementptr inbounds nuw i8, ptr %.022, i64 56
  tail call void %40(ptr noundef nonnull %42, ptr noundef nonnull %.022) #17
  br label %.loopexit

43:                                               ; preds = %pmix_obj_run_destructors.exit
  tail call void @free(ptr noundef nonnull %.022) #17
  br label %.loopexit

44:                                               ; preds = %.lr.ph
  %.not = icmp eq ptr %13, getelementptr inbounds nuw (i8, ptr @prte_pmix_server_globals, i64 1296)
  br i1 %.not, label %.loopexit, label %.lr.ph, !llvm.loop !103

.loopexit:                                        ; preds = %44, %9, %pmix_obj_update.exit, %43, %41
  %.not17 = icmp eq ptr %7, null
  br i1 %.not17, label %46, label %45

45:                                               ; preds = %.loopexit
  tail call void %7(i32 noundef -334, ptr noundef null, i64 noundef 0, ptr noundef null, ptr noundef null, ptr noundef %8) #17
  br label %46

46:                                               ; preds = %45, %.loopexit
  ret void
}